target datalayout = "e-m:e-p270:32:32-p271:32:32-p272:64:64-i64:64-f80:128-n8:16:32:64-S128"
target triple = "x86_64-pc-linux-gnu"

%struct.student = type { [20 x i8], i32, i32, i8, i8, i32, i32 }

@.str = private unnamed_addr constant [4 x i8] c"%d\0A\00", align 1
@.str.1 = private unnamed_addr constant [19 x i8] c"%s %d %d %c %c %d\0A\00", align 1
@.str.2 = private unnamed_addr constant [9 x i8] c"%s\0A%d\0A%d\00", align 1

; Function Attrs: noinline nounwind uwtable
define dso_local i32 @main() #0 {
  %1 = alloca i32, align 4
  %2 = alloca [102 x %struct.student], align 16
  %3 = alloca i32, align 4
  %4 = alloca i32, align 4
  %5 = alloca i32, align 4
  %6 = alloca i32, align 4
  store i32 0, i32* %1, align 4
  store i32 0, i32* %4, align 4
  %7 = call i32 (i8*, ...) @__isoc99_scanf(i8* getelementptr inbounds ([4 x i8], [4 x i8]* @.str, i64 0, i64 0), i32* %5)
  store i32 0, i32* %3, align 4
  br label %8

8:                                                ; preds = %39, %0
  %9 = load i32, i32* %3, align 4
  %10 = load i32, i32* %5, align 4
  %11 = icmp slt i32 %9, %10
  br i1 %11, label %12, label %42

12:                                               ; preds = %8
  %13 = load i32, i32* %3, align 4
  %14 = sext i32 %13 to i64
  %15 = getelementptr inbounds [102 x %struct.student], [102 x %struct.student]* %2, i64 0, i64 %14
  %16 = getelementptr inbounds %struct.student, %struct.student* %15, i32 0, i32 0
  %17 = getelementptr inbounds [20 x i8], [20 x i8]* %16, i64 0, i64 0
  %18 = load i32, i32* %3, align 4
  %19 = sext i32 %18 to i64
  %20 = getelementptr inbounds [102 x %struct.student], [102 x %struct.student]* %2, i64 0, i64 %19
  %21 = getelementptr inbounds %struct.student, %struct.student* %20, i32 0, i32 1
  %22 = load i32, i32* %3, align 4
  %23 = sext i32 %22 to i64
  %24 = getelementptr inbounds [102 x %struct.student], [102 x %struct.student]* %2, i64 0, i64 %23
  %25 = getelementptr inbounds %struct.student, %struct.student* %24, i32 0, i32 2
  %26 = load i32, i32* %3, align 4
  %27 = sext i32 %26 to i64
  %28 = getelementptr inbounds [102 x %struct.student], [102 x %struct.student]* %2, i64 0, i64 %27
  %29 = getelementptr inbounds %struct.student, %struct.student* %28, i32 0, i32 4
  %30 = load i32, i32* %3, align 4
  %31 = sext i32 %30 to i64
  %32 = getelementptr inbounds [102 x %struct.student], [102 x %struct.student]* %2, i64 0, i64 %31
  %33 = getelementptr inbounds %struct.student, %struct.student* %32, i32 0, i32 3
  %34 = load i32, i32* %3, align 4
  %35 = sext i32 %34 to i64
  %36 = getelementptr inbounds [102 x %struct.student], [102 x %struct.student]* %2, i64 0, i64 %35
  %37 = getelementptr inbounds %struct.student, %struct.student* %36, i32 0, i32 5
  %38 = call i32 (i8*, ...) @__isoc99_scanf(i8* getelementptr inbounds ([19 x i8], [19 x i8]* @.str.1, i64 0, i64 0), i8* %17, i32* %21, i32* %25, i8* %29, i8* %33, i32* %37)
  br label %39

39:                                               ; preds = %12
  %40 = load i32, i32* %3, align 4
  %41 = add nsw i32 %40, 1
  store i32 %41, i32* %3, align 4
  br label %8

42:                                               ; preds = %8
  store i32 0, i32* %3, align 4
  br label %43

43:                                               ; preds = %51, %42
  %44 = load i32, i32* %3, align 4
  %45 = icmp slt i32 %44, 102
  br i1 %45, label %46, label %54

46:                                               ; preds = %43
  %47 = load i32, i32* %3, align 4
  %48 = sext i32 %47 to i64
  %49 = getelementptr inbounds [102 x %struct.student], [102 x %struct.student]* %2, i64 0, i64 %48
  %50 = getelementptr inbounds %struct.student, %struct.student* %49, i32 0, i32 6
  store i32 0, i32* %50, align 4
  br label %51

51:                                               ; preds = %46
  %52 = load i32, i32* %3, align 4
  %53 = add nsw i32 %52, 1
  store i32 %53, i32* %3, align 4
  br label %43

54:                                               ; preds = %43
  store i32 0, i32* %3, align 4
  br label %55

55:                                               ; preds = %167, %54
  %56 = load i32, i32* %3, align 4
  %57 = load i32, i32* %5, align 4
  %58 = icmp slt i32 %56, %57
  br i1 %58, label %59, label %170

59:                                               ; preds = %55
  %60 = load i32, i32* %3, align 4
  %61 = sext i32 %60 to i64
  %62 = getelementptr inbounds [102 x %struct.student], [102 x %struct.student]* %2, i64 0, i64 %61
  %63 = getelementptr inbounds %struct.student, %struct.student* %62, i32 0, i32 1
  %64 = load i32, i32* %63, align 4
  %65 = icmp sgt i32 %64, 80
  br i1 %65, label %66, label %80

66:                                               ; preds = %59
  %67 = load i32, i32* %3, align 4
  %68 = sext i32 %67 to i64
  %69 = getelementptr inbounds [102 x %struct.student], [102 x %struct.student]* %2, i64 0, i64 %68
  %70 = getelementptr inbounds %struct.student, %struct.student* %69, i32 0, i32 5
  %71 = load i32, i32* %70, align 8
  %72 = icmp sgt i32 %71, 0
  br i1 %72, label %73, label %80

73:                                               ; preds = %66
  %74 = load i32, i32* %3, align 4
  %75 = sext i32 %74 to i64
  %76 = getelementptr inbounds [102 x %struct.student], [102 x %struct.student]* %2, i64 0, i64 %75
  %77 = getelementptr inbounds %struct.student, %struct.student* %76, i32 0, i32 6
  %78 = load i32, i32* %77, align 4
  %79 = add nsw i32 %78, 8000
  store i32 %79, i32* %77, align 4
  br label %80

80:                                               ; preds = %73, %66, %59
  %81 = load i32, i32* %3, align 4
  %82 = sext i32 %81 to i64
  %83 = getelementptr inbounds [102 x %struct.student], [102 x %struct.student]* %2, i64 0, i64 %82
  %84 = getelementptr inbounds %struct.student, %struct.student* %83, i32 0, i32 1
  %85 = load i32, i32* %84, align 4
  %86 = icmp sgt i32 %85, 85
  br i1 %86, label %87, label %101

87:                                               ; preds = %80
  %88 = load i32, i32* %3, align 4
  %89 = sext i32 %88 to i64
  %90 = getelementptr inbounds [102 x %struct.student], [102 x %struct.student]* %2, i64 0, i64 %89
  %91 = getelementptr inbounds %struct.student, %struct.student* %90, i32 0, i32 2
  %92 = load i32, i32* %91, align 8
  %93 = icmp sgt i32 %92, 80
  br i1 %93, label %94, label %101

94:                                               ; preds = %87
  %95 = load i32, i32* %3, align 4
  %96 = sext i32 %95 to i64
  %97 = getelementptr inbounds [102 x %struct.student], [102 x %struct.student]* %2, i64 0, i64 %96
  %98 = getelementptr inbounds %struct.student, %struct.student* %97, i32 0, i32 6
  %99 = load i32, i32* %98, align 4
  %100 = add nsw i32 %99, 4000
  store i32 %100, i32* %98, align 4
  br label %101

101:                                              ; preds = %94, %87, %80
  %102 = load i32, i32* %3, align 4
  %103 = sext i32 %102 to i64
  %104 = getelementptr inbounds [102 x %struct.student], [102 x %struct.student]* %2, i64 0, i64 %103
  %105 = getelementptr inbounds %struct.student, %struct.student* %104, i32 0, i32 1
  %106 = load i32, i32* %105, align 4
  %107 = icmp sgt i32 %106, 90
  br i1 %107, label %108, label %115

108:                                              ; preds = %101
  %109 = load i32, i32* %3, align 4
  %110 = sext i32 %109 to i64
  %111 = getelementptr inbounds [102 x %struct.student], [102 x %struct.student]* %2, i64 0, i64 %110
  %112 = getelementptr inbounds %struct.student, %struct.student* %111, i32 0, i32 6
  %113 = load i32, i32* %112, align 4
  %114 = add nsw i32 %113, 2000
  store i32 %114, i32* %112, align 4
  br label %115

115:                                              ; preds = %108, %101
  %116 = load i32, i32* %3, align 4
  %117 = sext i32 %116 to i64
  %118 = getelementptr inbounds [102 x %struct.student], [102 x %struct.student]* %2, i64 0, i64 %117
  %119 = getelementptr inbounds %struct.student, %struct.student* %118, i32 0, i32 1
  %120 = load i32, i32* %119, align 4
  %121 = icmp sgt i32 %120, 85
  br i1 %121, label %122, label %137

122:                                              ; preds = %115
  %123 = load i32, i32* %3, align 4
  %124 = sext i32 %123 to i64
  %125 = getelementptr inbounds [102 x %struct.student], [102 x %struct.student]* %2, i64 0, i64 %124
  %126 = getelementptr inbounds %struct.student, %struct.student* %125, i32 0, i32 3
  %127 = load i8, i8* %126, align 4
  %128 = sext i8 %127 to i32
  %129 = icmp eq i32 %128, 89
  br i1 %129, label %130, label %137

130:                                              ; preds = %122
  %131 = load i32, i32* %3, align 4
  %132 = sext i32 %131 to i64
  %133 = getelementptr inbounds [102 x %struct.student], [102 x %struct.student]* %2, i64 0, i64 %132
  %134 = getelementptr inbounds %struct.student, %struct.student* %133, i32 0, i32 6
  %135 = load i32, i32* %134, align 4
  %136 = add nsw i32 %135, 1000
  store i32 %136, i32* %134, align 4
  br label %137

137:                                              ; preds = %130, %122, %115
  %138 = load i32, i32* %3, align 4
  %139 = sext i32 %138 to i64
  %140 = getelementptr inbounds [102 x %struct.student], [102 x %struct.student]* %2, i64 0, i64 %139
  %141 = getelementptr inbounds %struct.student, %struct.student* %140, i32 0, i32 2
  %142 = load i32, i32* %141, align 8
  %143 = icmp sgt i32 %142, 80
  br i1 %143, label %144, label %159

144:                                              ; preds = %137
  %145 = load i32, i32* %3, align 4
  %146 = sext i32 %145 to i64
  %147 = getelementptr inbounds [102 x %struct.student], [102 x %struct.student]* %2, i64 0, i64 %146
  %148 = getelementptr inbounds %struct.student, %struct.student* %147, i32 0, i32 4
  %149 = load i8, i8* %148, align 1
  %150 = sext i8 %149 to i32
  %151 = icmp eq i32 %150, 89
  br i1 %151, label %152, label %159

152:                                              ; preds = %144
  %153 = load i32, i32* %3, align 4
  %154 = sext i32 %153 to i64
  %155 = getelementptr inbounds [102 x %struct.student], [102 x %struct.student]* %2, i64 0, i64 %154
  %156 = getelementptr inbounds %struct.student, %struct.student* %155, i32 0, i32 6
  %157 = load i32, i32* %156, align 4
  %158 = add nsw i32 %157, 850
  store i32 %158, i32* %156, align 4
  br label %159

159:                                              ; preds = %152, %144, %137
  %160 = load i32, i32* %3, align 4
  %161 = sext i32 %160 to i64
  %162 = getelementptr inbounds [102 x %struct.student], [102 x %struct.student]* %2, i64 0, i64 %161
  %163 = getelementptr inbounds %struct.student, %struct.student* %162, i32 0, i32 6
  %164 = load i32, i32* %163, align 4
  %165 = load i32, i32* %4, align 4
  %166 = add nsw i32 %165, %164
  store i32 %166, i32* %4, align 4
  br label %167

167:                                              ; preds = %159
  %168 = load i32, i32* %3, align 4
  %169 = add nsw i32 %168, 1
  store i32 %169, i32* %3, align 4
  br label %55

170:                                              ; preds = %55
  %171 = getelementptr inbounds [102 x %struct.student], [102 x %struct.student]* %2, i64 0, i64 0
  %172 = getelementptr inbounds %struct.student, %struct.student* %171, i32 0, i32 6
  %173 = load i32, i32* %172, align 4
  store i32 %173, i32* %6, align 4
  store i32 1, i32* %3, align 4
  br label %174

174:                                              ; preds = %193, %170
  %175 = load i32, i32* %3, align 4
  %176 = load i32, i32* %5, align 4
  %177 = icmp slt i32 %175, %176
  br i1 %177, label %178, label %196

178:                                              ; preds = %174
  %179 = load i32, i32* %3, align 4
  %180 = sext i32 %179 to i64
  %181 = getelementptr inbounds [102 x %struct.student], [102 x %struct.student]* %2, i64 0, i64 %180
  %182 = getelementptr inbounds %struct.student, %struct.student* %181, i32 0, i32 6
  %183 = load i32, i32* %182, align 4
  %184 = load i32, i32* %6, align 4
  %185 = icmp sgt i32 %183, %184
  br i1 %185, label %186, label %192

186:                                              ; preds = %178
  %187 = load i32, i32* %3, align 4
  %188 = sext i32 %187 to i64
  %189 = getelementptr inbounds [102 x %struct.student], [102 x %struct.student]* %2, i64 0, i64 %188
  %190 = getelementptr inbounds %struct.student, %struct.student* %189, i32 0, i32 6
  %191 = load i32, i32* %190, align 4
  store i32 %191, i32* %6, align 4
  br label %192

192:                                              ; preds = %186, %178
  br label %193

193:                                              ; preds = %192
  %194 = load i32, i32* %3, align 4
  %195 = add nsw i32 %194, 1
  store i32 %195, i32* %3, align 4
  br label %174

196:                                              ; preds = %174
  store i32 0, i32* %3, align 4
  br label %197

197:                                              ; preds = %223, %196
  %198 = load i32, i32* %3, align 4
  %199 = load i32, i32* %5, align 4
  %200 = icmp slt i32 %198, %199
  br i1 %200, label %201, label %226

201:                                              ; preds = %197
  %202 = load i32, i32* %3, align 4
  %203 = sext i32 %202 to i64
  %204 = getelementptr inbounds [102 x %struct.student], [102 x %struct.student]* %2, i64 0, i64 %203
  %205 = getelementptr inbounds %struct.student, %struct.student* %204, i32 0, i32 6
  %206 = load i32, i32* %205, align 4
  %207 = load i32, i32* %6, align 4
  %208 = icmp eq i32 %206, %207
  br i1 %208, label %209, label %222

209:                                              ; preds = %201
  %210 = load i32, i32* %3, align 4
  %211 = sext i32 %210 to i64
  %212 = getelementptr inbounds [102 x %struct.student], [102 x %struct.student]* %2, i64 0, i64 %211
  %213 = getelementptr inbounds %struct.student, %struct.student* %212, i32 0, i32 0
  %214 = getelementptr inbounds [20 x i8], [20 x i8]* %213, i64 0, i64 0
  %215 = load i32, i32* %3, align 4
  %216 = sext i32 %215 to i64
  %217 = getelementptr inbounds [102 x %struct.student], [102 x %struct.student]* %2, i64 0, i64 %216
  %218 = getelementptr inbounds %struct.student, %struct.student* %217, i32 0, i32 6
  %219 = load i32, i32* %218, align 4
  %220 = load i32, i32* %4, align 4
  %221 = call i32 (i8*, ...) @printf(i8* getelementptr inbounds ([9 x i8], [9 x i8]* @.str.2, i64 0, i64 0), i8* %214, i32 %219, i32 %220)
  br label %226

222:                                              ; preds = %201
  br label %223

223:                                              ; preds = %222
  %224 = load i32, i32* %3, align 4
  %225 = add nsw i32 %224, 1
  store i32 %225, i32* %3, align 4
  br label %197

226:                                              ; preds = %209, %197
  ret i32 0
}